target datalayout = "e-m:e-p270:32:32-p271:32:32-p272:64:64-i64:64-i128:128-f80:128-n8:16:32:64-S128"
target triple = "x86_64-pc-linux-gnu"

%"class.OpenColorIO_v2_5dev::MatrixOpData::Offsets" = type { [4 x double] }
%"class.OpenColorIO_v2_5dev::ArrayT" = type { %"class.OpenColorIO_v2_5dev::ArrayBase", i64, i64, %"class.std::vector" }
%"class.OpenColorIO_v2_5dev::ArrayBase" = type { ptr }
%"class.std::vector" = type { %"struct.std::_Vector_base" }
%"struct.std::_Vector_base" = type { %"struct.std::_Vector_base<double, std::allocator<double>>::_Vector_impl" }
%"struct.std::_Vector_base<double, std::allocator<double>>::_Vector_impl" = type { %"struct.std::_Vector_base<double, std::allocator<double>>::_Vector_impl_data" }
%"struct.std::_Vector_base<double, std::allocator<double>>::_Vector_impl_data" = type { ptr, ptr, ptr }
%"class.OpenColorIO_v2_5dev::MatrixOpData" = type <{ %"class.OpenColorIO_v2_5dev::OpData", %"class.OpenColorIO_v2_5dev::MatrixOpData::MatrixArray", %"class.OpenColorIO_v2_5dev::MatrixOpData::Offsets", i32, i32, i32, [4 x i8] }>
%"class.OpenColorIO_v2_5dev::OpData" = type { ptr, %"class.std::mutex", %"class.OpenColorIO_v2_5dev::FormatMetadataImpl" }
%"class.std::mutex" = type { %"class.std::__mutex_base" }
%"class.std::__mutex_base" = type { %union.pthread_mutex_t }
%union.pthread_mutex_t = type { %struct.__pthread_mutex_s }
%struct.__pthread_mutex_s = type { i32, i32, i32, i32, i32, i16, i16, %struct.__pthread_internal_list }
%struct.__pthread_internal_list = type { ptr, ptr }
%"class.OpenColorIO_v2_5dev::FormatMetadataImpl" = type { %"class.OpenColorIO_v2_5dev::FormatMetadata", %"class.std::__cxx11::basic_string", %"class.std::__cxx11::basic_string", %"class.std::vector.4", %"class.std::vector.9" }
%"class.OpenColorIO_v2_5dev::FormatMetadata" = type { ptr }
%"class.std::__cxx11::basic_string" = type { %"struct.std::__cxx11::basic_string<char>::_Alloc_hider", i64, %union.anon.3 }
%"struct.std::__cxx11::basic_string<char>::_Alloc_hider" = type { ptr }
%union.anon.3 = type { i64, [8 x i8] }
%"class.std::vector.4" = type { %"struct.std::_Vector_base.5" }
%"struct.std::_Vector_base.5" = type { %"struct.std::_Vector_base<std::pair<std::__cxx11::basic_string<char>, std::__cxx11::basic_string<char>>, std::allocator<std::pair<std::__cxx11::basic_string<char>, std::__cxx11::basic_string<char>>>>::_Vector_impl" }
%"struct.std::_Vector_base<std::pair<std::__cxx11::basic_string<char>, std::__cxx11::basic_string<char>>, std::allocator<std::pair<std::__cxx11::basic_string<char>, std::__cxx11::basic_string<char>>>>::_Vector_impl" = type { %"struct.std::_Vector_base<std::pair<std::__cxx11::basic_string<char>, std::__cxx11::basic_string<char>>, std::allocator<std::pair<std::__cxx11::basic_string<char>, std::__cxx11::basic_string<char>>>>::_Vector_impl_data" }
%"struct.std::_Vector_base<std::pair<std::__cxx11::basic_string<char>, std::__cxx11::basic_string<char>>, std::allocator<std::pair<std::__cxx11::basic_string<char>, std::__cxx11::basic_string<char>>>>::_Vector_impl_data" = type { ptr, ptr, ptr }
%"class.std::vector.9" = type { %"struct.std::_Vector_base.10" }
%"struct.std::_Vector_base.10" = type { %"struct.std::_Vector_base<OpenColorIO_v2_5dev::FormatMetadataImpl, std::allocator<OpenColorIO_v2_5dev::FormatMetadataImpl>>::_Vector_impl" }
%"struct.std::_Vector_base<OpenColorIO_v2_5dev::FormatMetadataImpl, std::allocator<OpenColorIO_v2_5dev::FormatMetadataImpl>>::_Vector_impl" = type { %"struct.std::_Vector_base<OpenColorIO_v2_5dev::FormatMetadataImpl, std::allocator<OpenColorIO_v2_5dev::FormatMetadataImpl>>::_Vector_impl_data" }
%"struct.std::_Vector_base<OpenColorIO_v2_5dev::FormatMetadataImpl, std::allocator<OpenColorIO_v2_5dev::FormatMetadataImpl>>::_Vector_impl_data" = type { ptr, ptr, ptr }
%"class.OpenColorIO_v2_5dev::MatrixOpData::MatrixArray" = type { %"class.OpenColorIO_v2_5dev::ArrayT" }

; Function Attrs: inlinehint mustprogress nounwind uwtable
define linkonce_odr hidden noundef nonnull align 8 dereferenceable(8) ptr @_ZNK19OpenColorIO_v2_5dev12MatrixOpData7OffsetsixEm(ptr noundef nonnull align 8 dereferenceable(32) %0, i64 noundef %1) #6 comdat align 2 {
  %3 = alloca ptr, align 8
  %4 = alloca i64, align 8
  store ptr %0, ptr %3, align 8, !tbaa !3
  store i64 %1, ptr %4, align 8, !tbaa !22
  %5 = load ptr, ptr %3, align 8
  %6 = getelementptr inbounds nuw %"class.OpenColorIO_v2_5dev::MatrixOpData::Offsets", ptr %5, i32 0, i32 0
  %7 = load i64, ptr %4, align 8, !tbaa !22
  %8 = getelementptr inbounds nuw [4 x double], ptr %6, i64 0, i64 %7
  ret ptr %8
}

; Function Attrs: inlinehint mustprogress nounwind uwtable
define linkonce_odr hidden noundef zeroext i1 @_ZN19OpenColorIO_v2_5dev17EqualWithAbsErrorIdEEbT_S1_S1_(double noundef %0, double noundef %1, double noundef %2) #6 comdat {
  %4 = alloca double, align 8
  %5 = alloca double, align 8
  %6 = alloca double, align 8
  store double %0, ptr %4, align 8, !tbaa !12
  store double %1, ptr %5, align 8, !tbaa !12
  store double %2, ptr %6, align 8, !tbaa !12
  %7 = load double, ptr %4, align 8, !tbaa !12
  %8 = load double, ptr %5, align 8, !tbaa !12
  %9 = fcmp ogt double %7, %8
  br i1 %9, label %10, label %14

10:                                               ; preds = %3
  %11 = load double, ptr %4, align 8, !tbaa !12
  %12 = load double, ptr %5, align 8, !tbaa !12
  %13 = fsub double %11, %12
  br label %18

14:                                               ; preds = %3
  %15 = load double, ptr %5, align 8, !tbaa !12
  %16 = load double, ptr %4, align 8, !tbaa !12
  %17 = fsub double %15, %16
  br label %18

18:                                               ; preds = %14, %10
  %19 = phi double [ %13, %10 ], [ %17, %14 ]
  %20 = load double, ptr %6, align 8, !tbaa !12
  %21 = fcmp ole double %19, %20
  ret i1 %21
}

; Function Attrs: mustprogress nounwind uwtable
define linkonce_odr hidden noundef nonnull align 8 dereferenceable(8) ptr @_ZNKSt6vectorIdSaIdEEixEm(ptr noundef nonnull align 8 dereferenceable(24) %0, i64 noundef %1) #7 comdat align 2 {
  %3 = alloca ptr, align 8
  %4 = alloca i64, align 8
  store ptr %0, ptr %3, align 8, !tbaa !18
  store i64 %1, ptr %4, align 8, !tbaa !22
  %5 = load ptr, ptr %3, align 8
  %6 = getelementptr inbounds nuw %"struct.std::_Vector_base", ptr %5, i32 0, i32 0
  %7 = getelementptr inbounds nuw %"struct.std::_Vector_base<double, std::allocator<double>>::_Vector_impl_data", ptr %6, i32 0, i32 0
  %8 = load ptr, ptr %7, align 8, !tbaa !24
  %9 = load i64, ptr %4, align 8, !tbaa !22
  %10 = getelementptr inbounds nuw double, ptr %8, i64 %9
  ret ptr %10
}

; Function Attrs: inlinehint mustprogress nounwind uwtable
define linkonce_odr hidden noundef nonnull align 8 dereferenceable(24) ptr @_ZNK19OpenColorIO_v2_5dev6ArrayTIdE9getValuesEv(ptr noundef nonnull align 8 dereferenceable(48) %0) #6 comdat align 2 {
  %2 = alloca ptr, align 8
  store ptr %0, ptr %2, align 8, !tbaa !20
  %3 = load ptr, ptr %2, align 8
  %4 = getelementptr inbounds nuw %"class.OpenColorIO_v2_5dev::ArrayT", ptr %3, i32 0, i32 3
  ret ptr %4
}

; Function Attrs: inlinehint mustprogress nounwind uwtable
define linkonce_odr hidden noundef nonnull align 8 dereferenceable(48) ptr @_ZNK19OpenColorIO_v2_5dev12MatrixOpData8getArrayEv(ptr noundef nonnull align 8 dereferenceable(260) %0) #6 comdat align 2 {
  %2 = alloca ptr, align 8
  store ptr %0, ptr %2, align 8, !tbaa !26
  %3 = load ptr, ptr %2, align 8
  %4 = getelementptr inbounds nuw %"class.OpenColorIO_v2_5dev::MatrixOpData", ptr %3, i32 0, i32 1
  ret ptr %4
}

; Function Attrs: mustprogress uwtable
define hidden noundef zeroext i1 @_ZNK19OpenColorIO_v2_5dev12MatrixOpData8hasAlphaEv(ptr noundef nonnull align 8 dereferenceable(260) %0) #4 align 2 {
  %2 = alloca ptr, align 8
  %3 = alloca ptr, align 8
  %4 = alloca ptr, align 8
  store ptr %0, ptr %2, align 8, !tbaa !26
  %5 = load ptr, ptr %2, align 8
  call void @llvm.lifetime.start.p0(i64 8, ptr %3) #3
  %6 = call noundef nonnull align 8 dereferenceable(48) ptr @_ZNK19OpenColorIO_v2_5dev12MatrixOpData8getArrayEv(ptr noundef nonnull align 8 dereferenceable(260) %5)
  store ptr %6, ptr %3, align 8, !tbaa !20
  call void @llvm.lifetime.start.p0(i64 8, ptr %4) #3
  %7 = load ptr, ptr %3, align 8, !tbaa !20
  %8 = call noundef nonnull align 8 dereferenceable(24) ptr @_ZNK19OpenColorIO_v2_5dev6ArrayTIdE9getValuesEv(ptr noundef nonnull align 8 dereferenceable(48) %7)
  store ptr %8, ptr %4, align 8, !tbaa !18
  %9 = load ptr, ptr %4, align 8, !tbaa !18
  %10 = call noundef nonnull align 8 dereferenceable(8) ptr @_ZNKSt6vectorIdSaIdEEixEm(ptr noundef nonnull align 8 dereferenceable(24) %9, i64 noundef 3) #3
  %11 = load double, ptr %10, align 8, !tbaa !12
  %12 = fcmp une double %11, 0.000000e+00
  br i1 %12, label %48, label %13

13:                                               ; preds = %1
  %14 = load ptr, ptr %4, align 8, !tbaa !18
  %15 = call noundef nonnull align 8 dereferenceable(8) ptr @_ZNKSt6vectorIdSaIdEEixEm(ptr noundef nonnull align 8 dereferenceable(24) %14, i64 noundef 7) #3
  %16 = load double, ptr %15, align 8, !tbaa !12
  %17 = fcmp une double %16, 0.000000e+00
  br i1 %17, label %48, label %18

18:                                               ; preds = %13
  %19 = load ptr, ptr %4, align 8, !tbaa !18
  %20 = call noundef nonnull align 8 dereferenceable(8) ptr @_ZNKSt6vectorIdSaIdEEixEm(ptr noundef nonnull align 8 dereferenceable(24) %19, i64 noundef 11) #3
  %21 = load double, ptr %20, align 8, !tbaa !12
  %22 = fcmp une double %21, 0.000000e+00
  br i1 %22, label %48, label %23

23:                                               ; preds = %18
  %24 = load ptr, ptr %4, align 8, !tbaa !18
  %25 = call noundef nonnull align 8 dereferenceable(8) ptr @_ZNKSt6vectorIdSaIdEEixEm(ptr noundef nonnull align 8 dereferenceable(24) %24, i64 noundef 15) #3
  %26 = load double, ptr %25, align 8, !tbaa !12
  %27 = call noundef zeroext i1 @_ZN19OpenColorIO_v2_5dev17EqualWithAbsErrorIdEEbT_S1_S1_(double noundef %26, double noundef 1.000000e+00, double noundef 0x3EB0C6F7A0B5ED8D)
  br i1 %27, label %28, label %48

28:                                               ; preds = %23
  %29 = load ptr, ptr %4, align 8, !tbaa !18
  %30 = call noundef nonnull align 8 dereferenceable(8) ptr @_ZNKSt6vectorIdSaIdEEixEm(ptr noundef nonnull align 8 dereferenceable(24) %29, i64 noundef 12) #3
  %31 = load double, ptr %30, align 8, !tbaa !12
  %32 = fcmp une double %31, 0.000000e+00
  br i1 %32, label %48, label %33

33:                                               ; preds = %28
  %34 = load ptr, ptr %4, align 8, !tbaa !18
  %35 = call noundef nonnull align 8 dereferenceable(8) ptr @_ZNKSt6vectorIdSaIdEEixEm(ptr noundef nonnull align 8 dereferenceable(24) %34, i64 noundef 13) #3
  %36 = load double, ptr %35, align 8, !tbaa !12
  %37 = fcmp une double %36, 0.000000e+00
  br i1 %37, label %48, label %38

38:                                               ; preds = %33
  %39 = load ptr, ptr %4, align 8, !tbaa !18
  %40 = call noundef nonnull align 8 dereferenceable(8) ptr @_ZNKSt6vectorIdSaIdEEixEm(ptr noundef nonnull align 8 dereferenceable(24) %39, i64 noundef 14) #3
  %41 = load double, ptr %40, align 8, !tbaa !12
  %42 = fcmp une double %41, 0.000000e+00
  br i1 %42, label %48, label %43

43:                                               ; preds = %38
  %44 = getelementptr inbounds nuw %"class.OpenColorIO_v2_5dev::MatrixOpData", ptr %5, i32 0, i32 2
  %45 = call noundef nonnull align 8 dereferenceable(8) ptr @_ZNK19OpenColorIO_v2_5dev12MatrixOpData7OffsetsixEm(ptr noundef nonnull align 8 dereferenceable(32) %44, i64 noundef 3)
  %46 = load double, ptr %45, align 8, !tbaa !12
  %47 = fcmp une double %46, 0.000000e+00
  br label %48

48:                                               ; preds = %43, %38, %33, %28, %23, %18, %13, %1
  %49 = phi i1 [ true, %38 ], [ true, %33 ], [ true, %28 ], [ true, %23 ], [ true, %18 ], [ true, %13 ], [ true, %1 ], [ %47, %43 ]
  call void @llvm.lifetime.end.p0(i64 8, ptr %4) #3
  call void @llvm.lifetime.end.p0(i64 8, ptr %3) #3
  ret i1 %49
}