; Function Attrs: mustprogress nofree norecurse nosync nounwind willreturn memory(read, inaccessiblemem: none) uwtable
define hidden noundef zeroext i1 @_ZNK19OpenColorIO_v2_5dev12MatrixOpData8hasAlphaEv(ptr noundef nonnull readonly align 8 captures(none) dereferenceable(260) %0) local_unnamed_addr #18 align 2 {
  %2 = getelementptr inbounds nuw i8, ptr %0, i64 192
  %3 = load ptr, ptr %2, align 8, !tbaa !9
  %4 = getelementptr inbounds nuw i8, ptr %3, i64 24
  %5 = load double, ptr %4, align 8, !tbaa !7
  %6 = fcmp une double %5, 0.000000e+00
  br i1 %6, label %39, label %7

7:                                                ; preds = %1
  %8 = getelementptr inbounds nuw i8, ptr %3, i64 56
  %9 = load double, ptr %8, align 8, !tbaa !7
  %10 = fcmp une double %9, 0.000000e+00
  br i1 %10, label %39, label %11

11:                                               ; preds = %7
  %12 = getelementptr inbounds nuw i8, ptr %3, i64 88
  %13 = load double, ptr %12, align 8, !tbaa !7
  %14 = fcmp une double %13, 0.000000e+00
  br i1 %14, label %39, label %15

15:                                               ; preds = %11
  %16 = getelementptr inbounds nuw i8, ptr %3, i64 120
  %17 = load double, ptr %16, align 8, !tbaa !7
  %18 = fcmp ogt double %17, 1.000000e+00
  %19 = fadd double %17, -1.000000e+00
  %20 = fsub double 1.000000e+00, %17
  %21 = select i1 %18, double %19, double %20
  %22 = fcmp ugt double %21, 0x3EB0C6F7A0B5ED8D
  br i1 %22, label %39, label %23

23:                                               ; preds = %15
  %24 = getelementptr inbounds nuw i8, ptr %3, i64 96
  %25 = load double, ptr %24, align 8, !tbaa !7
  %26 = fcmp une double %25, 0.000000e+00
  br i1 %26, label %39, label %27

27:                                               ; preds = %23
  %28 = getelementptr inbounds nuw i8, ptr %3, i64 104
  %29 = load double, ptr %28, align 8, !tbaa !7
  %30 = fcmp une double %29, 0.000000e+00
  br i1 %30, label %39, label %31

31:                                               ; preds = %27
  %32 = getelementptr inbounds nuw i8, ptr %3, i64 112
  %33 = load double, ptr %32, align 8, !tbaa !7
  %34 = fcmp une double %33, 0.000000e+00
  br i1 %34, label %39, label %35

35:                                               ; preds = %31
  %36 = getelementptr inbounds nuw i8, ptr %0, i64 240
  %37 = load double, ptr %36, align 8, !tbaa !7
  %38 = fcmp une double %37, 0.000000e+00
  br label %39

39:                                               ; preds = %35, %31, %27, %23, %15, %11, %7, %1
  %40 = phi i1 [ true, %31 ], [ true, %27 ], [ true, %23 ], [ true, %15 ], [ true, %11 ], [ true, %7 ], [ true, %1 ], [ %38, %35 ]
  ret i1 %40
}